; ModuleID = 'source-C-CXX/61/2575.c'
source_filename = "source-C-CXX/61/2575.c"
target datalayout = "e-m:e-p270:32:32-p271:32:32-p272:64:64-i64:64-f80:128-n8:16:32:64-S128"
target triple = "x86_64-pc-linux-gnu"

; Function Attrs: nounwind sspstrong uwtable
define dso_local i32 @main() local_unnamed_addr #0 {
  %1 = alloca [100 x i8], align 16
  %2 = alloca [100 x i8], align 16
  %3 = getelementptr inbounds [100 x i8], [100 x i8]* %1, i64 0, i64 0
  call void @llvm.lifetime.start.p0i8(i64 100, i8* nonnull %3) #5
  %4 = call i32 (i8*, ...) bitcast (i32 (...)* @gets to i32 (i8*, ...)*)(i8* nonnull %3) #5
  %5 = getelementptr inbounds [100 x i8], [100 x i8]* %2, i64 0, i64 0
  call void @llvm.lifetime.start.p0i8(i64 100, i8* nonnull %5) #5
  call void @llvm.memset.p0i8.i64(i8* noundef nonnull align 16 dereferenceable(100) %5, i8 0, i64 100, i1 false)
  %6 = load i8, i8* %3, align 16, !tbaa !5
  %7 = icmp eq i8 %6, 0
  br i1 %7, label %37, label %8

8:                                                ; preds = %0, %32
  %9 = phi i64 [ %34, %32 ], [ 0, %0 ]
  %10 = phi i8 [ %33, %32 ], [ %6, %0 ]
  %11 = phi i32 [ %35, %32 ], [ 0, %0 ]
  %12 = phi i32 [ %19, %32 ], [ 0, %0 ]
  %13 = icmp slt i32 %11, 1
  br i1 %13, label %14, label %18

14:                                               ; preds = %8
  %15 = add nsw i32 %12, 1
  %16 = sext i32 %12 to i64
  %17 = getelementptr inbounds [100 x i8], [100 x i8]* %2, i64 0, i64 %16
  store i8 %10, i8* %17, align 1, !tbaa !5
  br label %18

18:                                               ; preds = %14, %8
  %19 = phi i32 [ %15, %14 ], [ %12, %8 ]
  %20 = icmp eq i8 %10, 32
  br i1 %20, label %25, label %21

21:                                               ; preds = %18
  %22 = add nuw i64 %9, 1
  %23 = getelementptr inbounds [100 x i8], [100 x i8]* %1, i64 0, i64 %22
  %24 = load i8, i8* %23, align 1, !tbaa !5
  br label %32

25:                                               ; preds = %18
  %26 = add nsw i32 %11, 1
  %27 = add nuw i64 %9, 1
  %28 = getelementptr inbounds [100 x i8], [100 x i8]* %1, i64 0, i64 %27
  %29 = load i8, i8* %28, align 1, !tbaa !5
  %30 = icmp eq i8 %29, 32
  %31 = select i1 %30, i32 %26, i32 0
  br label %32

32:                                               ; preds = %21, %25
  %33 = phi i8 [ %24, %21 ], [ %29, %25 ]
  %34 = phi i64 [ %22, %21 ], [ %27, %25 ]
  %35 = phi i32 [ %11, %21 ], [ %31, %25 ]
  %36 = icmp eq i8 %33, 0
  br i1 %36, label %37, label %8, !llvm.loop !8

37:                                               ; preds = %32, %0
  %38 = call i32 @puts(i8* nonnull %5)
  call void @llvm.lifetime.end.p0i8(i64 100, i8* nonnull %5) #5
  call void @llvm.lifetime.end.p0i8(i64 100, i8* nonnull %3) #5
  ret i32 0
}

; Function Attrs: argmemonly mustprogress nofree nosync nounwind willreturn
declare void @llvm.lifetime.start.p0i8(i64 immarg, i8* nocapture) #1

declare i32 @gets(...) local_unnamed_addr #2

; Function Attrs: argmemonly mustprogress nofree nounwind willreturn writeonly
declare void @llvm.memset.p0i8.i64(i8* nocapture writeonly, i8, i64, i1 immarg) #3

; Function Attrs: argmemonly mustprogress nofree nosync nounwind willreturn
declare void @llvm.lifetime.end.p0i8(i64 immarg, i8* nocapture) #1

; Function Attrs: nofree nounwind
declare noundef i32 @puts(i8* nocapture noundef readonly) local_unnamed_addr #4


!llvm.module.flags = !{!0, !1, !2, !3}
!llvm.ident = !{!4}

!0 = !{i32 1, !"wchar_size", i32 4}
!1 = !{i32 7, !"PIC Level", i32 2}
!2 = !{i32 7, !"PIE Level", i32 2}
!3 = !{i32 7, !"uwtable", i32 1}
!4 = !{!"clang version 13.0.0"}
!5 = !{!6, !6, i64 0}
!6 = !{!"omnipotent char", !7, i64 0}
!7 = !{!"Simple C/C++ TBAA"}
!8 = distinct !{!8, !9}
!9 = !{!"llvm.loop.mustprogress"}
